; Function Attrs: mustprogress nounwind uwtable
define dso_local noundef i64 @_ZN4node6crypto21VerifyPeerCertificateERKSt10unique_ptrI6ssl_stNS_15FunctionDeleterIS2_XadL_Z8SSL_freeEEEEEl(ptr nocapture noundef nonnull readonly align 8 dereferenceable(8) %ssl, i64 noundef %def) local_unnamed_addr #3 {
entry:
  %0 = load ptr, ptr %ssl, align 8
  %call1 = tail call ptr @SSL_get1_peer_certificate(ptr noundef %0) #17
  %tobool.not = icmp eq ptr %call1, null
  br i1 %tobool.not, label %if.else, label %if.then

if.then:                                          ; preds = %entry
  tail call void @X509_free(ptr noundef nonnull %call1) #17
  %1 = load ptr, ptr %ssl, align 8
  %call3 = tail call i64 @SSL_get_verify_result(ptr noundef %1) #17
  br label %return

if.else:                                          ; preds = %entry
  %2 = load ptr, ptr %ssl, align 8
  %call5 = tail call ptr @SSL_get_current_cipher(ptr noundef %2) #17
  %3 = load ptr, ptr %ssl, align 8
  %call7 = tail call ptr @SSL_get_session(ptr noundef %3) #17
  %call8 = tail call i32 @SSL_CIPHER_get_auth_nid(ptr noundef %call5) #17
  %cmp = icmp eq i32 %call8, 1048
  br i1 %cmp, label %return, label %lor.lhs.false

lor.lhs.false:                                    ; preds = %if.else
  %call9 = tail call i32 @SSL_SESSION_get_protocol_version(ptr noundef %call7) #17
  %cmp10 = icmp eq i32 %call9, 772
  br i1 %cmp10, label %land.lhs.true, label %return

land.lhs.true:                                    ; preds = %lor.lhs.false
  %4 = load ptr, ptr %ssl, align 8
  %call12 = tail call i32 @SSL_session_reused(ptr noundef %4) #17
  %tobool13.not = icmp eq i32 %call12, 0
  %spec.select = select i1 %tobool13.not, i64 %def, i64 0
  br label %return

return:                                           ; preds = %land.lhs.true, %if.then, %lor.lhs.false, %if.else
  %retval.0 = phi i64 [ 0, %if.else ], [ %call3, %if.then ], [ %def, %lor.lhs.false ], [ %spec.select, %land.lhs.true ]
  ret i64 %retval.0
}